CCS PCM C Compiler, Version 5.007, 61971               27-Ara-20 18:44

               Filename:   C:\Users\USER\Desktop\sýnav\main.lst

               ROM used:   250 words (3%)
                           Largest free fragment is 2048
               RAM used:   8 (2%) at main() level
                           10 (3%) worst case
               Stack used: 0 locations
               Stack size: 8

*
0000:  MOVLW  00
0001:  MOVWF  0A
0002:  GOTO   0E7
0003:  NOP
.................... #include <main.h> 
.................... #include <16F877A.h> 
.................... //////// Standard Header file for the PIC16F877A device //////////////// 
.................... #device PIC16F877A 
0004:  BCF    0A.0
0005:  BCF    0A.1
0006:  BCF    0A.2
0007:  ADDWF  02,F
0008:  RETLW  3F
0009:  RETLW  06
000A:  RETLW  5B
000B:  RETLW  4F
000C:  RETLW  66
000D:  RETLW  6D
000E:  RETLW  7D
000F:  RETLW  07
0010:  RETLW  7F
0011:  RETLW  6F
....................  
.................... #list 
....................  
.................... #device ADC=16 
....................  
.................... #FUSES NOWDT                 	//No Watch Dog Timer 
.................... #FUSES NOBROWNOUT            	//No brownout reset 
.................... #FUSES NOLVP                 	//No low voltage prgming, B3(PIC16) or B5(PIC18) used for I/O 
....................  
.................... #use delay(crystal=20000000) 
0012:  MOVLW  24
0013:  MOVWF  04
0014:  BCF    03.7
0015:  MOVF   00,W
0016:  BTFSC  03.2
0017:  GOTO   025
0018:  MOVLW  06
0019:  MOVWF  78
001A:  CLRF   77
001B:  DECFSZ 77,F
001C:  GOTO   01B
001D:  DECFSZ 78,F
001E:  GOTO   01A
001F:  MOVLW  7B
0020:  MOVWF  77
0021:  DECFSZ 77,F
0022:  GOTO   021
0023:  DECFSZ 00,F
0024:  GOTO   018
0025:  RETURN
....................  
....................  
....................    int sayac=0 ,btn=1; 
....................    const int digit[10]={0x3F, 0x06, 0x5B, 0x4F, 0x66, 0x6D, 0x7D, 0x07, 0x7F, 0x6F}; 
....................     
....................    butonmap(){ 
....................     
....................    if(input(pin_c0)){ 
0026:  BSF    22.0
0027:  MOVF   22,W
0028:  BSF    03.5
0029:  MOVWF  07
002A:  BCF    03.5
002B:  BTFSS  07.0
002C:  GOTO   05F
....................      while(true){ 
....................      if(input(pin_c1)||input(pin_c2)){ 
002D:  BSF    22.1
002E:  MOVF   22,W
002F:  BSF    03.5
0030:  MOVWF  07
0031:  BCF    03.5
0032:  BTFSC  07.1
0033:  GOTO   03A
0034:  BSF    22.2
0035:  MOVF   22,W
0036:  BSF    03.5
0037:  MOVWF  07
0038:  BCF    03.5
0039:  BTFSC  07.2
....................      break; 
003A:  GOTO   05E
....................      } 
....................      if(sayac==9){ 
003B:  MOVF   20,W
003C:  SUBLW  09
003D:  BTFSS  03.2
003E:  GOTO   04D
....................      delay_ms(500); 
003F:  MOVLW  02
0040:  MOVWF  23
0041:  MOVLW  FA
0042:  MOVWF  24
0043:  CALL   012
0044:  DECFSZ 23,F
0045:  GOTO   041
....................      output_b(0x3F); 
0046:  BSF    03.5
0047:  CLRF   06
0048:  MOVLW  3F
0049:  BCF    03.5
004A:  MOVWF  06
....................      sayac=0; 
004B:  CLRF   20
....................      } 
004C:  GOTO   05D
....................      else{ 
....................      delay_ms(500); 
004D:  MOVLW  02
004E:  MOVWF  23
004F:  MOVLW  FA
0050:  MOVWF  24
0051:  CALL   012
0052:  DECFSZ 23,F
0053:  GOTO   04F
....................      sayac++; 
0054:  INCF   20,F
....................      output_b(digit[sayac]); 
0055:  MOVF   20,W
0056:  CALL   004
0057:  MOVWF  23
0058:  BSF    03.5
0059:  CLRF   06
005A:  BCF    03.5
005B:  MOVF   23,W
005C:  MOVWF  06
....................      } 
005D:  GOTO   02D
....................      } 
....................    } 
005E:  GOTO   0E2
....................       
....................    else if(input(pin_c2)){ 
005F:  BSF    22.2
0060:  MOVF   22,W
0061:  BSF    03.5
0062:  MOVWF  07
0063:  BCF    03.5
0064:  BTFSS  07.2
0065:  GOTO   098
....................      while(true){ 
....................      if(input(pin_c0)||input(pin_c1)){ 
0066:  BSF    22.0
0067:  MOVF   22,W
0068:  BSF    03.5
0069:  MOVWF  07
006A:  BCF    03.5
006B:  BTFSC  07.0
006C:  GOTO   073
006D:  BSF    22.1
006E:  MOVF   22,W
006F:  BSF    03.5
0070:  MOVWF  07
0071:  BCF    03.5
0072:  BTFSC  07.1
....................      break; 
0073:  GOTO   097
....................      } 
....................      if(sayac==0){ 
0074:  MOVF   20,F
0075:  BTFSS  03.2
0076:  GOTO   086
....................      delay_ms(500); 
0077:  MOVLW  02
0078:  MOVWF  23
0079:  MOVLW  FA
007A:  MOVWF  24
007B:  CALL   012
007C:  DECFSZ 23,F
007D:  GOTO   079
....................      output_b(0x6F); 
007E:  BSF    03.5
007F:  CLRF   06
0080:  MOVLW  6F
0081:  BCF    03.5
0082:  MOVWF  06
....................      sayac=9; 
0083:  MOVLW  09
0084:  MOVWF  20
....................      } 
0085:  GOTO   096
....................      else{ 
....................      delay_ms(500); 
0086:  MOVLW  02
0087:  MOVWF  23
0088:  MOVLW  FA
0089:  MOVWF  24
008A:  CALL   012
008B:  DECFSZ 23,F
008C:  GOTO   088
....................      sayac--; 
008D:  DECF   20,F
....................      output_b(digit[sayac]); 
008E:  MOVF   20,W
008F:  CALL   004
0090:  MOVWF  23
0091:  BSF    03.5
0092:  CLRF   06
0093:  BCF    03.5
0094:  MOVF   23,W
0095:  MOVWF  06
....................      } 
0096:  GOTO   066
....................      } 
....................    } 
0097:  GOTO   0E2
....................    else if(input(pin_c1)){   
0098:  BSF    22.1
0099:  MOVF   22,W
009A:  BSF    03.5
009B:  MOVWF  07
009C:  BCF    03.5
009D:  BTFSS  07.1
009E:  GOTO   0E2
....................      output_b(digit[sayac]); 
009F:  MOVF   20,W
00A0:  CALL   004
00A1:  MOVWF  23
00A2:  BSF    03.5
00A3:  CLRF   06
00A4:  BCF    03.5
00A5:  MOVF   23,W
00A6:  MOVWF  06
....................      while(true){    
....................      delay_ms(250);         
00A7:  MOVLW  FA
00A8:  MOVWF  24
00A9:  CALL   012
....................      if(input(pin_c0)||input(pin_c2)){ 
00AA:  BSF    22.0
00AB:  MOVF   22,W
00AC:  BSF    03.5
00AD:  MOVWF  07
00AE:  BCF    03.5
00AF:  BTFSC  07.0
00B0:  GOTO   0B8
00B1:  BSF    22.2
00B2:  MOVF   22,W
00B3:  BSF    03.5
00B4:  MOVWF  07
00B5:  BCF    03.5
00B6:  BTFSS  07.2
00B7:  GOTO   0BC
....................      btn=1; 
00B8:  MOVLW  01
00B9:  MOVWF  21
....................      break; 
00BA:  GOTO   0E2
....................      } 
00BB:  GOTO   0E1
....................      else if(input(pin_c1) && btn==2){ 
00BC:  BSF    22.1
00BD:  MOVF   22,W
00BE:  BSF    03.5
00BF:  MOVWF  07
00C0:  BCF    03.5
00C1:  BTFSS  07.1
00C2:  GOTO   0D1
00C3:  MOVF   21,W
00C4:  SUBLW  02
00C5:  BTFSS  03.2
00C6:  GOTO   0D1
....................      btn=1; 
00C7:  MOVLW  01
00C8:  MOVWF  21
....................      output_b(0x6F); 
00C9:  BSF    03.5
00CA:  CLRF   06
00CB:  MOVLW  6F
00CC:  BCF    03.5
00CD:  MOVWF  06
....................      sayac=9; 
00CE:  MOVLW  09
00CF:  MOVWF  20
....................      } 
00D0:  GOTO   0E1
....................      else if(input(pin_c1) && btn==1){ 
00D1:  BSF    22.1
00D2:  MOVF   22,W
00D3:  BSF    03.5
00D4:  MOVWF  07
00D5:  BCF    03.5
00D6:  BTFSS  07.1
00D7:  GOTO   0E1
00D8:  DECFSZ 21,W
00D9:  GOTO   0E1
....................      btn++; 
00DA:  INCF   21,F
....................      output_b(0x3F); 
00DB:  BSF    03.5
00DC:  CLRF   06
00DD:  MOVLW  3F
00DE:  BCF    03.5
00DF:  MOVWF  06
....................      sayac=0; 
00E0:  CLRF   20
....................      }  
00E1:  GOTO   0A7
....................      } 
....................    } 
....................       
....................       
....................      return sayac; 
00E2:  MOVF   20,W
00E3:  MOVWF  78
00E4:  BCF    0A.3
00E5:  BCF    0A.4
00E6:  GOTO   0F8 (RETURN)
....................    } 
....................     
.................... void main() 
00E7:  CLRF   20
00E8:  MOVLW  01
00E9:  MOVWF  21
00EA:  MOVLW  FF
00EB:  MOVWF  22
00EC:  BSF    03.5
00ED:  BSF    1F.0
00EE:  BSF    1F.1
00EF:  BSF    1F.2
00F0:  BCF    1F.3
00F1:  MOVLW  07
00F2:  MOVWF  1C
00F3:  BCF    03.7
00F4:  MOVLW  1F
00F5:  ANDWF  03,F
.................... { 
....................     
....................     
....................    while(TRUE) 
....................    { 
....................    butonmap(); 
00F6:  BCF    03.5
00F7:  GOTO   026
00F8:  GOTO   0F7
....................     
....................    } 
.................... } 
....................  
00F9:  SLEEP
....................  

Configuration Fuses:
   Word  1: 3F32   HS NOWDT PUT NOBROWNOUT NOLVP NOCPD NOWRT NODEBUG NOPROTECT
